; Function Attrs: mustprogress uwtable
define internal void @_ZNK3ade7details8Metadata14MetadataHolderIN12_GLOBAL__N_110PythonUnitEE5cloneEv(ptr dead_on_unwind noalias nocapture writable writeonly sret(%"class.std::unique_ptr.124") align 8 %0, ptr noundef nonnull align 8 dereferenceable(80) %1) unnamed_addr #3 align 2 personality ptr @__gxx_personality_v0 {
  %3 = tail call noalias noundef nonnull dereferenceable(80) ptr @_Znwm(i64 noundef 80) #24
  store ptr getelementptr inbounds inrange(-16, 24) (i8, ptr @_ZTVN3ade7details8Metadata14MetadataHolderIN12_GLOBAL__N_110PythonUnitEEE, i64 16), ptr %3, align 8
  %4 = getelementptr inbounds i8, ptr %3, i64 8
  %5 = getelementptr inbounds i8, ptr %1, i64 8
  invoke void @_ZN2cv4gapi6python13GPythonKernelC2ERKS2_(ptr noundef nonnull align 8 dereferenceable(65) %4, ptr noundef nonnull align 8 dereferenceable(65) %5)
          to label %_ZN3ade7details8Metadata14MetadataHolderIN12_GLOBAL__N_110PythonUnitEEC2ERKS5_.exit unwind label %6

_ZN3ade7details8Metadata14MetadataHolderIN12_GLOBAL__N_110PythonUnitEEC2ERKS5_.exit: ; preds = %2
  store ptr %3, ptr %0, align 8
  ret void

6:                                                ; preds = %2
  %7 = landingpad { ptr, i32 }
          cleanup
  tail call void @_ZdlPv(ptr noundef nonnull %3) #26
  resume { ptr, i32 } %7
}